(dp0
S'344'
p1
I01
sS'0'
p2
I00
sS'346'
p3
I01
sS'347'
p4
I01
sS'340'
p5
I01
sS'341'
p6
I01
sS'342'
p7
I01
sS'343'
p8
I01
sS'348'
p9
I01
sS'349'
p10
I01
sS'298'
p11
I01
sS'299'
p12
I01
sS'296'
p13
I00
sS'297'
p14
I00
sS'294'
p15
I01
sS'295'
p16
I01
sS'292'
p17
I00
sS'293'
p18
I00
sS'290'
p19
I00
sS'291'
p20
I01
sS'199'
p21
I00
sS'198'
p22
I00
sS'195'
p23
I01
sS'194'
p24
I01
sS'197'
p25
I01
sS'196'
p26
I01
sS'191'
p27
I01
sS'190'
p28
I01
sS'193'
p29
I01
sS'192'
p30
I00
sS'270'
p31
I00
sS'271'
p32
I01
sS'272'
p33
I00
sS'273'
p34
I01
sS'274'
p35
I01
sS'275'
p36
I00
sS'276'
p37
I01
sS'277'
p38
I00
sS'278'
p39
I01
sS'279'
p40
I00
sS'108'
p41
I00
sS'109'
p42
I00
sS'102'
p43
I01
sS'103'
p44
I01
sS'100'
p45
I01
sS'101'
p46
I01
sS'106'
p47
I00
sS'107'
p48
I00
sS'104'
p49
I01
sS'105'
p50
I00
sS'39'
p51
I00
sS'38'
p52
I00
sS'33'
p53
I00
sS'32'
p54
I00
sS'31'
p55
I00
sS'30'
p56
I00
sS'37'
p57
I00
sS'36'
p58
I00
sS'35'
p59
I00
sS'34'
p60
I00
sS'339'
p61
I00
sS'338'
p62
I00
sS'335'
p63
I00
sS'334'
p64
I00
sS'337'
p65
I00
sS'336'
p66
I00
sS'331'
p67
I00
sS'330'
p68
I00
sS'333'
p69
I00
sS'332'
p70
I00
sS'345'
p71
I01
sS'6'
p72
I00
sS'99'
p73
I01
sS'98'
p74
I01
sS'91'
p75
I01
sS'90'
p76
I01
sS'93'
p77
I01
sS'92'
p78
I01
sS'95'
p79
I01
sS'94'
p80
I01
sS'97'
p81
I01
sS'96'
p82
I01
sS'238'
p83
I00
sS'239'
p84
I00
sS'234'
p85
I01
sS'235'
p86
I00
sS'236'
p87
I00
sS'237'
p88
I00
sS'230'
p89
I00
sS'231'
p90
I00
sS'232'
p91
I00
sS'233'
p92
I00
sS'1'
p93
I00
sS'146'
p94
I01
sS'147'
p95
I00
sS'144'
p96
I00
sS'145'
p97
I00
sS'142'
p98
I00
sS'143'
p99
I00
sS'140'
p100
I00
sS'141'
p101
I01
sS'148'
p102
I00
sS'149'
p103
I00
sS'133'
p104
I00
sS'132'
p105
I00
sS'131'
p106
I00
sS'130'
p107
I00
sS'137'
p108
I00
sS'136'
p109
I00
sS'135'
p110
I00
sS'134'
p111
I00
sS'139'
p112
I00
sS'138'
p113
I00
sS'24'
p114
I01
sS'25'
p115
I00
sS'26'
p116
I01
sS'27'
p117
I01
sS'20'
p118
I01
sS'21'
p119
I01
sS'22'
p120
I01
sS'23'
p121
I01
sS'28'
p122
I01
sS'29'
p123
I01
sS'379'
p124
I00
sS'378'
p125
I00
sS'371'
p126
I00
sS'370'
p127
I00
sS'373'
p128
I00
sS'372'
p129
I00
sS'375'
p130
I00
sS'374'
p131
I00
sS'377'
p132
I00
sS'376'
p133
I01
sS'393'
p134
I01
sS'392'
p135
I01
sS'88'
p136
I00
sS'89'
p137
I00
sS'397'
p138
I01
sS'396'
p139
I01
sS'395'
p140
I01
sS'394'
p141
I01
sS'82'
p142
I00
sS'83'
p143
I01
sS'80'
p144
I00
sS'81'
p145
I00
sS'86'
p146
I00
sS'87'
p147
I00
sS'84'
p148
I00
sS'85'
p149
I00
sS'7'
p150
I00
sS'245'
p151
I01
sS'244'
p152
I01
sS'247'
p153
I01
sS'246'
p154
I01
sS'241'
p155
I01
sS'240'
p156
I01
sS'243'
p157
I00
sS'242'
p158
I01
sS'249'
p159
I01
sS'248'
p160
I00
sS'179'
p161
I00
sS'178'
p162
I00
sS'177'
p163
I00
sS'176'
p164
I00
sS'175'
p165
I00
sS'174'
p166
I01
sS'173'
p167
I01
sS'172'
p168
I00
sS'171'
p169
I00
sS'170'
p170
I00
sS'253'
p171
I01
sS'182'
p172
I00
sS'183'
p173
I01
sS'180'
p174
I00
sS'181'
p175
I01
sS'186'
p176
I01
sS'187'
p177
I01
sS'184'
p178
I00
sS'185'
p179
I00
sS'188'
p180
I01
sS'189'
p181
I00
sS'11'
p182
I00
sS'10'
p183
I00
sS'13'
p184
I00
sS'12'
p185
I00
sS'15'
p186
I00
sS'14'
p187
I00
sS'17'
p188
I00
sS'16'
p189
I01
sS'19'
p190
I00
sS'18'
p191
I00
sS'62'
p192
I01
sS'322'
p193
I01
sS'323'
p194
I01
sS'320'
p195
I00
sS'321'
p196
I00
sS'326'
p197
I01
sS'327'
p198
I01
sS'324'
p199
I01
sS'325'
p200
I01
sS'328'
p201
I01
sS'329'
p202
I01
sS'201'
p203
I01
sS'200'
p204
I01
sS'203'
p205
I00
sS'202'
p206
I01
sS'205'
p207
I00
sS'204'
p208
I00
sS'207'
p209
I00
sS'206'
p210
I00
sS'209'
p211
I00
sS'208'
p212
I00
sS'77'
p213
I00
sS'76'
p214
I00
sS'75'
p215
I01
sS'74'
p216
I01
sS'73'
p217
I01
sS'72'
p218
I01
sS'71'
p219
I00
sS'70'
p220
I01
sS'79'
p221
I00
sS'78'
p222
I00
sS'2'
p223
I00
sS'8'
p224
I00
sS'68'
p225
I00
sS'120'
p226
I00
sS'121'
p227
I00
sS'122'
p228
I00
sS'123'
p229
I01
sS'124'
p230
I00
sS'125'
p231
I00
sS'126'
p232
I00
sS'127'
p233
I00
sS'128'
p234
I01
sS'129'
p235
I01
sS'319'
p236
I01
sS'318'
p237
I01
sS'313'
p238
I01
sS'312'
p239
I01
sS'311'
p240
I01
sS'310'
p241
I01
sS'317'
p242
I01
sS'316'
p243
I01
sS'315'
p244
I00
sS'314'
p245
I01
sS'3'
p246
I00
sS'368'
p247
I00
sS'369'
p248
I00
sS'366'
p249
I00
sS'367'
p250
I01
sS'364'
p251
I01
sS'365'
p252
I01
sS'362'
p253
I00
sS'363'
p254
I00
sS'360'
p255
I00
sS'361'
p256
I01
sS'380'
p257
I01
sS'381'
p258
I01
sS'382'
p259
I01
sS'383'
p260
I01
sS'384'
p261
I01
sS'385'
p262
I01
sS'386'
p263
I01
sS'387'
p264
I01
sS'388'
p265
I01
sS'389'
p266
I01
sS'60'
p267
I01
sS'61'
p268
I01
sS'258'
p269
I01
sS'259'
p270
I00
sS'64'
p271
I01
sS'65'
p272
I01
sS'66'
p273
I01
sS'67'
p274
I00
sS'252'
p275
I00
sS'69'
p276
I01
sS'250'
p277
I01
sS'251'
p278
I00
sS'256'
p279
I00
sS'257'
p280
I00
sS'254'
p281
I00
sS'255'
p282
I01
sS'168'
p283
I01
sS'169'
p284
I01
sS'164'
p285
I01
sS'165'
p286
I01
sS'166'
p287
I01
sS'167'
p288
I01
sS'160'
p289
I01
sS'161'
p290
I01
sS'162'
p291
I01
sS'163'
p292
I01
sS'9'
p293
I00
sS'357'
p294
I00
sS'356'
p295
I00
sS'355'
p296
I00
sS'354'
p297
I00
sS'353'
p298
I00
sS'352'
p299
I00
sS'351'
p300
I00
sS'350'
p301
I01
sS'359'
p302
I00
sS'358'
p303
I00
sS'216'
p304
I01
sS'217'
p305
I01
sS'214'
p306
I01
sS'215'
p307
I01
sS'212'
p308
I01
sS'213'
p309
I01
sS'210'
p310
I01
sS'211'
p311
I01
sS'218'
p312
I01
sS'219'
p313
I01
sS'289'
p314
I00
sS'288'
p315
I00
sS'4'
p316
I00
sS'281'
p317
I00
sS'280'
p318
I00
sS'283'
p319
I00
sS'282'
p320
I00
sS'285'
p321
I00
sS'284'
p322
I00
sS'287'
p323
I00
sS'286'
p324
I00
sS'263'
p325
I01
sS'262'
p326
I01
sS'261'
p327
I01
sS'260'
p328
I01
sS'267'
p329
I00
sS'266'
p330
I00
sS'265'
p331
I01
sS'264'
p332
I01
sS'269'
p333
I01
sS'268'
p334
I00
sS'59'
p335
I00
sS'58'
p336
I00
sS'55'
p337
I00
sS'54'
p338
I00
sS'57'
p339
I00
sS'56'
p340
I00
sS'51'
p341
I01
sS'50'
p342
I01
sS'53'
p343
I00
sS'52'
p344
I00
sS'63'
p345
I01
sS'115'
p346
I00
sS'114'
p347
I01
sS'117'
p348
I01
sS'116'
p349
I01
sS'111'
p350
I01
sS'110'
p351
I00
sS'113'
p352
I01
sS'112'
p353
I01
sS'119'
p354
I01
sS'118'
p355
I00
sS'308'
p356
I01
sS'309'
p357
I00
sS'300'
p358
I01
sS'301'
p359
I01
sS'302'
p360
I01
sS'303'
p361
I01
sS'304'
p362
I01
sS'305'
p363
I01
sS'306'
p364
I01
sS'307'
p365
I01
sS'229'
p366
I00
sS'228'
p367
I00
sS'227'
p368
I01
sS'226'
p369
I00
sS'225'
p370
I00
sS'224'
p371
I00
sS'223'
p372
I00
sS'222'
p373
I00
sS'221'
p374
I00
sS'220'
p375
I00
sS'391'
p376
I01
sS'390'
p377
I01
sS'151'
p378
I00
sS'150'
p379
I00
sS'153'
p380
I00
sS'152'
p381
I00
sS'155'
p382
I00
sS'154'
p383
I01
sS'157'
p384
I00
sS'156'
p385
I00
sS'159'
p386
I00
sS'158'
p387
I00
sS'399'
p388
I01
sS'398'
p389
I01
sS'48'
p390
I01
sS'49'
p391
I01
sS'46'
p392
I01
sS'47'
p393
I01
sS'44'
p394
I01
sS'45'
p395
I01
sS'42'
p396
I01
sS'43'
p397
I01
sS'40'
p398
I01
sS'41'
p399
I01
sS'5'
p400
I00
s.